; Function Attrs: mustprogress uwtable
define void @_ZN2cv4gapi9streaming7kernelsEv(ptr dead_on_unwind noalias nonnull writable sret(%"class.cv::GKernelPackage") align 8 %0) local_unnamed_addr #3 personality ptr @__gxx_personality_v0 {
  %2 = getelementptr inbounds i8, ptr %0, i64 48
  store ptr %2, ptr %0, align 8, !alias.scope !71
  %3 = getelementptr inbounds i8, ptr %0, i64 8
  store i64 1, ptr %3, align 8, !alias.scope !71
  %4 = getelementptr inbounds i8, ptr %0, i64 16
  %5 = getelementptr inbounds i8, ptr %0, i64 32
  tail call void @llvm.memset.p0.i64(ptr noundef nonnull align 8 dereferenceable(16) %4, i8 0, i64 16, i1 false), !alias.scope !71
  store float 1.000000e+00, ptr %5, align 8, !alias.scope !71
  %6 = getelementptr inbounds i8, ptr %0, i64 40
  tail call void @llvm.memset.p0.i64(ptr noundef nonnull align 8 dereferenceable(40) %6, i8 0, i64 40, i1 false), !alias.scope !71
  invoke void @_ZN2cv14GKernelPackage13includeHelperI7GOCVBGREENSt9enable_ifIXsr3std10is_base_ofINS_6detail9KernelTagET_EE5valueEvE4typeEv(ptr noundef nonnull align 8 dereferenceable(80) %0)
          to label %_ZN2cv14GKernelPackage7includeI7GOCVBGREEvv.exit.i unwind label %7

_ZN2cv14GKernelPackage7includeI7GOCVBGREEvv.exit.i: ; preds = %1
  invoke void @_ZN2cv14GKernelPackage13includeHelperI5GOCVYEENSt9enable_ifIXsr3std10is_base_ofINS_6detail9KernelTagET_EE5valueEvE4typeEv(ptr noundef nonnull align 8 dereferenceable(80) %0)
          to label %_ZN2cv14GKernelPackage7includeI5GOCVYEEvv.exit.i unwind label %7

_ZN2cv14GKernelPackage7includeI5GOCVYEEvv.exit.i: ; preds = %_ZN2cv14GKernelPackage7includeI7GOCVBGREEvv.exit.i
  invoke void @_ZN2cv14GKernelPackage13includeHelperI6GOCVUVEENSt9enable_ifIXsr3std10is_base_ofINS_6detail9KernelTagET_EE5valueEvE4typeEv(ptr noundef nonnull align 8 dereferenceable(80) %0)
          to label %_ZN2cv4gapi7kernelsIJ7GOCVBGR5GOCVY6GOCVUVEEENS_14GKernelPackageEv.exit unwind label %7

7:                                                ; preds = %_ZN2cv14GKernelPackage7includeI5GOCVYEEvv.exit.i, %_ZN2cv14GKernelPackage7includeI7GOCVBGREEvv.exit.i, %1
  %8 = landingpad { ptr, i32 }
          cleanup
  tail call void @_ZN2cv14GKernelPackageD2Ev(ptr noundef nonnull align 8 dereferenceable(80) %0) #25
  resume { ptr, i32 } %8

_ZN2cv4gapi7kernelsIJ7GOCVBGR5GOCVY6GOCVUVEEENS_14GKernelPackageEv.exit: ; preds = %_ZN2cv14GKernelPackage7includeI5GOCVYEEvv.exit.i
  ret void
}